; Function Attrs: mustprogress uwtable
define void @_ZN6Assimp11SMDImporter17ParseNodesSectionEPKcPS2_S2_(ptr noundef nonnull align 8 dereferenceable(226) %0, ptr noundef %1, ptr noundef writeonly captures(none) %2, ptr noundef %3) local_unnamed_addr #3 align 2 {
  %5 = alloca ptr, align 8
  store ptr %1, ptr %5, align 8
  br label %6

6:                                                ; preds = %_ZN6Assimp16IsSpaceOrNewLineIcEEbT_.exit, %4
  %7 = phi ptr [ %.pre, %_ZN6Assimp16IsSpaceOrNewLineIcEEbT_.exit ], [ %1, %4 ]
  %8 = tail call i32 @strncasecmp(ptr noundef %7, ptr noundef nonnull @.str.34, i64 noundef 3) #32
  %9 = icmp eq i32 %8, 0
  br i1 %9, label %10, label %_ZN6Assimp16IsSpaceOrNewLineIcEEbT_.exit

10:                                               ; preds = %6
  %11 = getelementptr inbounds nuw i8, ptr %7, i64 3
  %12 = load i8, ptr %11, align 1
  switch i8 %12, label %_ZN6Assimp16IsSpaceOrNewLineIcEEbT_.exit [
    i8 32, label %13
    i8 9, label %13
    i8 13, label %13
    i8 10, label %13
    i8 0, label %13
    i8 12, label %13
  ]

13:                                               ; preds = %10, %10, %10, %10, %10, %10
  %14 = getelementptr inbounds nuw i8, ptr %7, i64 4
  store ptr %14, ptr %5, align 8
  %15 = getelementptr inbounds nuw i8, ptr %0, i64 220
  %16 = load i32, ptr %15, align 4
  %17 = add i32 %16, 1
  store i32 %17, ptr %15, align 4
  %18 = ptrtoint ptr %14 to i64
  %19 = ptrtoint ptr %3 to i64
  %20 = sub i64 %19, %18
  %scevgep.i.i = getelementptr i8, ptr %14, i64 %20
  br label %21

21:                                               ; preds = %24, %13
  %.0.i.i = phi ptr [ %14, %13 ], [ %25, %24 ]
  %22 = load i8, ptr %.0.i.i, align 1
  switch i8 %22, label %_ZN6Assimp11SMDImporter20SkipSpacesAndLineEndEPKcPS2_S2_.exit [
    i8 32, label %23
    i8 9, label %23
    i8 13, label %23
    i8 10, label %23
  ]

23:                                               ; preds = %21, %21, %21, %21
  %.not.i.i = icmp eq ptr %.0.i.i, %3
  br i1 %.not.i.i, label %_ZN6Assimp11SMDImporter20SkipSpacesAndLineEndEPKcPS2_S2_.exit, label %24

24:                                               ; preds = %23
  %25 = getelementptr inbounds nuw i8, ptr %.0.i.i, i64 1
  br label %21, !llvm.loop !87

_ZN6Assimp11SMDImporter20SkipSpacesAndLineEndEPKcPS2_S2_.exit: ; preds = %21, %23
  %.0.lcssa.i.i = phi ptr [ %.0.i.i, %21 ], [ %scevgep.i.i, %23 ]
  store ptr %.0.lcssa.i.i, ptr %2, align 8
  ret void

_ZN6Assimp16IsSpaceOrNewLineIcEEbT_.exit:         ; preds = %10, %6
  call void @_ZN6Assimp11SMDImporter13ParseNodeInfoEPKcPS2_S2_(ptr noundef nonnull align 8 dereferenceable(226) %0, ptr noundef %7, ptr noundef nonnull %5, ptr noundef %3)
  %.pre = load ptr, ptr %5, align 8
  br label %6, !llvm.loop !91
}